target datalayout = "e-m:e-p270:32:32-p271:32:32-p272:64:64-i64:64-i128:128-f80:128-n8:16:32:64-S128"
target triple = "x86_64-unknown-linux-gnu"

%struct.VFIODevice = type { %struct.anon, %struct.anon.0, %struct.anon.1, ptr, ptr, ptr, ptr, ptr, i32, i32, i8, i8, i8, i8, i32, ptr, i32, i32, i32, ptr, ptr, i32, i8, i8 }
%struct.anon = type { ptr, ptr }
%struct.anon.0 = type { ptr, ptr }
%struct.anon.1 = type { ptr, ptr }
%struct.VFIODeviceOps = type { ptr, ptr, ptr, ptr, ptr, ptr }
%struct.timeval = type { i64, i64 }

@.str.12 = private unnamed_addr constant [39 x i8] c"%s: Failed to save device config space\00", align 1
@trace_events_enabled_count = external global i32, align 4
@_TRACE_VFIO_SAVE_DEVICE_CONFIG_STATE_DSTATE = external global i16, align 2
@message_with_timestamp = external global i8, align 1
@.str.13 = private unnamed_addr constant [50 x i8] c"%d@%zu.%06zu:vfio_save_device_config_state  (%s)\0A\00", align 1
@.str.14 = private unnamed_addr constant [37 x i8] c"vfio_save_device_config_state  (%s)\0A\00", align 1
@qemu_loglevel = external global i32, align 4

; Function Attrs: nounwind sspstrong uwtable
define internal zeroext i1 @qemu_loglevel_mask(i32 noundef %mask) #0 {
entry:
  %mask.addr = alloca i32, align 4
  store i32 %mask, ptr %mask.addr, align 4
  %0 = load i32, ptr @qemu_loglevel, align 4
  %1 = load i32, ptr %mask.addr, align 4
  %and = and i32 %0, %1
  %cmp = icmp ne i32 %and, 0
  ret i1 %cmp
}

; Function Attrs: nounwind sspstrong uwtable
define internal void @_nocheck__trace_vfio_save_device_config_state(ptr noundef %name) #0 {
entry:
  %name.addr = alloca ptr, align 8
  %_now = alloca %struct.timeval, align 8
  store ptr %name, ptr %name.addr, align 8
  %0 = load i32, ptr @trace_events_enabled_count, align 4
  %tobool = icmp ne i32 %0, 0
  %lnot = xor i1 %tobool, true
  %lnot1 = xor i1 %lnot, true
  %lnot.ext = zext i1 %lnot1 to i32
  %conv = sext i32 %lnot.ext to i64
  %tobool2 = icmp ne i64 %conv, 0
  br i1 %tobool2, label %land.lhs.true, label %if.end11

land.lhs.true:                                    ; preds = %entry
  %1 = load i16, ptr @_TRACE_VFIO_SAVE_DEVICE_CONFIG_STATE_DSTATE, align 2
  %conv3 = zext i16 %1 to i32
  %tobool4 = icmp ne i32 %conv3, 0
  br i1 %tobool4, label %land.lhs.true5, label %if.end11

land.lhs.true5:                                   ; preds = %land.lhs.true
  %call = call zeroext i1 @qemu_loglevel_mask(i32 noundef 32768)
  br i1 %call, label %if.then, label %if.end11

if.then:                                          ; preds = %land.lhs.true5
  %2 = load i8, ptr @message_with_timestamp, align 1
  %tobool7 = trunc i8 %2 to i1
  br i1 %tobool7, label %if.then8, label %if.else

if.then8:                                         ; preds = %if.then
  %call9 = call i32 @gettimeofday(ptr noundef %_now, ptr noundef null) #9
  %call10 = call i32 @qemu_get_thread_id()
  %tv_sec = getelementptr inbounds %struct.timeval, ptr %_now, i32 0, i32 0
  %3 = load i64, ptr %tv_sec, align 8
  %tv_usec = getelementptr inbounds %struct.timeval, ptr %_now, i32 0, i32 1
  %4 = load i64, ptr %tv_usec, align 8
  %5 = load ptr, ptr %name.addr, align 8
  call void (ptr, ...) @qemu_log(ptr noundef @.str.13, i32 noundef %call10, i64 noundef %3, i64 noundef %4, ptr noundef %5)
  br label %if.end

if.else:                                          ; preds = %if.then
  %6 = load ptr, ptr %name.addr, align 8
  call void (ptr, ...) @qemu_log(ptr noundef @.str.14, ptr noundef %6)
  br label %if.end

if.end:                                           ; preds = %if.else, %if.then8
  br label %if.end11

if.end11:                                         ; preds = %if.end, %land.lhs.true5, %land.lhs.true, %entry
  ret void
}

; Function Attrs: nounwind sspstrong uwtable
define internal void @trace_vfio_save_device_config_state(ptr noundef %name) #0 {
entry:
  %name.addr = alloca ptr, align 8
  store ptr %name, ptr %name.addr, align 8
  %0 = load ptr, ptr %name.addr, align 8
  call void @_nocheck__trace_vfio_save_device_config_state(ptr noundef %0)
  ret void
}

; Function Attrs: nounwind sspstrong uwtable
define internal i32 @vfio_save_device_config_state(ptr noundef %f, ptr noundef %opaque) #0 {
entry:
  %f.addr = alloca ptr, align 8
  %opaque.addr = alloca ptr, align 8
  %vbasedev = alloca ptr, align 8
  store ptr %f, ptr %f.addr, align 8
  store ptr %opaque, ptr %opaque.addr, align 8
  %0 = load ptr, ptr %opaque.addr, align 8
  store ptr %0, ptr %vbasedev, align 8
  %1 = load ptr, ptr %f.addr, align 8
  call void @qemu_put_be64(ptr noundef %1, i64 noundef -284164094)
  %2 = load ptr, ptr %vbasedev, align 8
  %ops = getelementptr inbounds %struct.VFIODevice, ptr %2, i32 0, i32 15
  %3 = load ptr, ptr %ops, align 8
  %tobool = icmp ne ptr %3, null
  br i1 %tobool, label %land.lhs.true, label %if.end

land.lhs.true:                                    ; preds = %entry
  %4 = load ptr, ptr %vbasedev, align 8
  %ops1 = getelementptr inbounds %struct.VFIODevice, ptr %4, i32 0, i32 15
  %5 = load ptr, ptr %ops1, align 8
  %vfio_save_config = getelementptr inbounds %struct.VFIODeviceOps, ptr %5, i32 0, i32 4
  %6 = load ptr, ptr %vfio_save_config, align 8
  %tobool2 = icmp ne ptr %6, null
  br i1 %tobool2, label %if.then, label %if.end

if.then:                                          ; preds = %land.lhs.true
  %7 = load ptr, ptr %vbasedev, align 8
  %ops3 = getelementptr inbounds %struct.VFIODevice, ptr %7, i32 0, i32 15
  %8 = load ptr, ptr %ops3, align 8
  %vfio_save_config4 = getelementptr inbounds %struct.VFIODeviceOps, ptr %8, i32 0, i32 4
  %9 = load ptr, ptr %vfio_save_config4, align 8
  %10 = load ptr, ptr %vbasedev, align 8
  %11 = load ptr, ptr %f.addr, align 8
  call void %9(ptr noundef %10, ptr noundef %11)
  br label %if.end

if.end:                                           ; preds = %if.then, %land.lhs.true, %entry
  %12 = load ptr, ptr %f.addr, align 8
  call void @qemu_put_be64(ptr noundef %12, i64 noundef -284164095)
  %13 = load ptr, ptr %vbasedev, align 8
  %name = getelementptr inbounds %struct.VFIODevice, ptr %13, i32 0, i32 6
  %14 = load ptr, ptr %name, align 8
  call void @trace_vfio_save_device_config_state(ptr noundef %14)
  %15 = load ptr, ptr %f.addr, align 8
  %call = call i32 @qemu_file_get_error(ptr noundef %15)
  ret i32 %call
}

; Function Attrs: nounwind sspstrong uwtable
define internal void @vfio_save_state(ptr noundef %f, ptr noundef %opaque) #0 {
entry:
  %f.addr = alloca ptr, align 8
  %opaque.addr = alloca ptr, align 8
  %vbasedev = alloca ptr, align 8
  %ret = alloca i32, align 4
  store ptr %f, ptr %f.addr, align 8
  store ptr %opaque, ptr %opaque.addr, align 8
  %0 = load ptr, ptr %opaque.addr, align 8
  store ptr %0, ptr %vbasedev, align 8
  %1 = load ptr, ptr %f.addr, align 8
  %2 = load ptr, ptr %opaque.addr, align 8
  %call = call i32 @vfio_save_device_config_state(ptr noundef %1, ptr noundef %2)
  store i32 %call, ptr %ret, align 4
  %3 = load i32, ptr %ret, align 4
  %tobool = icmp ne i32 %3, 0
  br i1 %tobool, label %if.then, label %if.end

if.then:                                          ; preds = %entry
  %4 = load ptr, ptr %vbasedev, align 8
  %name = getelementptr inbounds %struct.VFIODevice, ptr %4, i32 0, i32 6
  %5 = load ptr, ptr %name, align 8
  call void (ptr, ...) @error_report(ptr noundef @.str.12, ptr noundef %5)
  %6 = load ptr, ptr %f.addr, align 8
  %7 = load i32, ptr %ret, align 4
  call void @qemu_file_set_error(ptr noundef %6, i32 noundef %7)
  br label %if.end

if.end:                                           ; preds = %if.then, %entry
  ret void
}