; Function Attrs: nounwind sspstrong uwtable
define internal void @vfio_save_state(ptr noundef %f, ptr noundef %opaque) #2 {
entry:
  %_now.i.i.i = alloca %struct.timeval, align 8
  tail call void @qemu_put_be64(ptr noundef %f, i64 noundef -284164094) #16
  %ops.i = getelementptr inbounds nuw i8, ptr %opaque, i64 104
  %0 = load ptr, ptr %ops.i, align 8
  %tobool.not.i = icmp eq ptr %0, null
  br i1 %tobool.not.i, label %if.end.i, label %land.lhs.true.i

land.lhs.true.i:                                  ; preds = %entry
  %vfio_save_config.i = getelementptr inbounds nuw i8, ptr %0, i64 32
  %1 = load ptr, ptr %vfio_save_config.i, align 8
  %tobool2.not.i = icmp eq ptr %1, null
  br i1 %tobool2.not.i, label %if.end.i, label %if.then.i

if.then.i:                                        ; preds = %land.lhs.true.i
  tail call void %1(ptr noundef nonnull %opaque, ptr noundef %f) #16
  br label %if.end.i

if.end.i:                                         ; preds = %if.then.i, %land.lhs.true.i, %entry
  tail call void @qemu_put_be64(ptr noundef %f, i64 noundef -284164095) #16
  %name.i = getelementptr inbounds nuw i8, ptr %opaque, i64 72
  %2 = load ptr, ptr %name.i, align 8
  call void @llvm.lifetime.start.p0(i64 16, ptr nonnull %_now.i.i.i)
  %3 = load i32, ptr @trace_events_enabled_count, align 4
  %tobool.i.i.i = icmp ne i32 %3, 0
  %4 = load i16, ptr @_TRACE_VFIO_SAVE_DEVICE_CONFIG_STATE_DSTATE, align 2
  %tobool4.i.i.i = icmp ne i16 %4, 0
  %or.cond.i.i.i = select i1 %tobool.i.i.i, i1 %tobool4.i.i.i, i1 false
  br i1 %or.cond.i.i.i, label %land.lhs.true5.i.i.i, label %vfio_save_device_config_state.exit

land.lhs.true5.i.i.i:                             ; preds = %if.end.i
  %5 = load i32, ptr @qemu_loglevel, align 4
  %and.i.i.i.i = and i32 %5, 32768
  %cmp.i.not.i.i.i = icmp eq i32 %and.i.i.i.i, 0
  br i1 %cmp.i.not.i.i.i, label %vfio_save_device_config_state.exit, label %if.then.i.i.i

if.then.i.i.i:                                    ; preds = %land.lhs.true5.i.i.i
  %6 = load i8, ptr @message_with_timestamp, align 1
  %tobool7.i.i.i = trunc i8 %6 to i1
  br i1 %tobool7.i.i.i, label %if.then8.i.i.i, label %if.else.i.i.i

if.then8.i.i.i:                                   ; preds = %if.then.i.i.i
  %call9.i.i.i = call i32 @gettimeofday(ptr noundef nonnull %_now.i.i.i, ptr noundef null) #16
  %call10.i.i.i = tail call i32 @qemu_get_thread_id() #16
  %7 = load i64, ptr %_now.i.i.i, align 8
  %tv_usec.i.i.i = getelementptr inbounds nuw i8, ptr %_now.i.i.i, i64 8
  %8 = load i64, ptr %tv_usec.i.i.i, align 8
  tail call void (ptr, ...) @qemu_log(ptr noundef nonnull @.str.13, i32 noundef %call10.i.i.i, i64 noundef %7, i64 noundef %8, ptr noundef %2) #16
  br label %vfio_save_device_config_state.exit

if.else.i.i.i:                                    ; preds = %if.then.i.i.i
  tail call void (ptr, ...) @qemu_log(ptr noundef nonnull @.str.14, ptr noundef %2) #16
  br label %vfio_save_device_config_state.exit

vfio_save_device_config_state.exit:               ; preds = %if.end.i, %land.lhs.true5.i.i.i, %if.then8.i.i.i, %if.else.i.i.i
  call void @llvm.lifetime.end.p0(i64 16, ptr nonnull %_now.i.i.i)
  %call.i = tail call i32 @qemu_file_get_error(ptr noundef %f) #16
  %tobool.not = icmp eq i32 %call.i, 0
  br i1 %tobool.not, label %if.end, label %if.then

if.then:                                          ; preds = %vfio_save_device_config_state.exit
  %9 = load ptr, ptr %name.i, align 8
  tail call void (ptr, ...) @error_report(ptr noundef nonnull @.str.12, ptr noundef %9) #16
  tail call void @qemu_file_set_error(ptr noundef %f, i32 noundef %call.i) #16
  br label %if.end

if.end:                                           ; preds = %if.then, %vfio_save_device_config_state.exit
  ret void
}